; Function Attrs: nounwind uwtable
define void @lv_arc_set_bg_start_angle(ptr noundef %0, float noundef %1) local_unnamed_addr #0 {
  %.not = icmp eq ptr %0, null
  br i1 %.not, label %.preheader, label %3

.preheader:                                       ; preds = %2, %.preheader
  br label %.preheader

3:                                                ; preds = %2
  %4 = fcmp ogt float %1, 3.600000e+02
  %5 = fadd float %1, -3.600000e+02
  %.033 = select i1 %4, float %5, float %1
  %6 = getelementptr inbounds nuw i8, ptr %0, i64 80
  %7 = load float, ptr %6, align 8, !tbaa !18
  %8 = getelementptr inbounds nuw i8, ptr %0, i64 76
  %9 = load float, ptr %8, align 4, !tbaa !17
  %10 = fsub float %7, %9
  %11 = fsub float %7, %.033
  %12 = fcmp olt float %10, 0.000000e+00
  %13 = fadd float %10, 3.600000e+02
  %.032 = select i1 %12, float %13, float %10
  %14 = fcmp olt float %11, 0.000000e+00
  %15 = fadd float %11, 3.600000e+02
  %.0 = select i1 %14, float %15, float %11
  %16 = fsub float %.0, %.032
  %17 = fcmp ogt float %16, 0.000000e+00
  %18 = fneg float %16
  %19 = select i1 %17, float %16, float %18
  %20 = fcmp ogt float %19, 1.800000e+02
  br i1 %20, label %21, label %22

21:                                               ; preds = %3
  tail call void @lv_obj_invalidate(ptr noundef nonnull %0) #7
  br label %28

22:                                               ; preds = %3
  %23 = fcmp olt float %.0, %.032
  br i1 %23, label %24, label %25

24:                                               ; preds = %22
  tail call fastcc void @inv_arc_area(ptr noundef %0, float noundef %9, float noundef %.033, i32 noundef 0)
  br label %28

25:                                               ; preds = %22
  %26 = fcmp olt float %.032, %.0
  br i1 %26, label %27, label %28

27:                                               ; preds = %25
  tail call fastcc void @inv_arc_area(ptr noundef %0, float noundef %.033, float noundef %9, i32 noundef 0)
  br label %28

28:                                               ; preds = %24, %27, %25, %21
  store float %.033, ptr %8, align 4, !tbaa !17
  tail call fastcc void @value_update(ptr noundef %0)
  ret void
}